; Function Attrs: nounwind uwtable
define internal fastcc ptr @concat(ptr noundef %0, ptr noundef %1) unnamed_addr #0 {
  %3 = alloca %struct.agxbuf, align 8
  call void @llvm.lifetime.start.p0(i64 32, ptr nonnull %3) #24
  call void @llvm.memset.p0.i64(ptr noundef nonnull align 8 dereferenceable(32) %3, i8 0, i64 32, i1 false)
  call void (ptr, ptr, ...) @agxbprint(ptr noundef %3, ptr noundef nonnull @.str.17, ptr noundef %0, ptr noundef %1)
  %4 = getelementptr inbounds nuw i8, ptr %3, i64 31
  %.val.i = load i8, ptr %4, align 1, !tbaa !26
  %.not.i = icmp eq i8 %.val.i, -1
  br i1 %.not.i, label %agxbsizeof.exit.i.i, label %agxblen.exit.i

agxblen.exit.i:                                   ; preds = %2
  %5 = zext i8 %.val.i to i64
  %6 = call noalias ptr @strndup(ptr noundef nonnull readonly %3, i64 noundef %5) #24
  %7 = icmp eq ptr %6, null
  br i1 %7, label %8, label %agxbdisown.exit

8:                                                ; preds = %agxblen.exit.i
  %9 = load ptr, ptr @stderr, align 8, !tbaa !3
  %10 = add nuw nsw i64 %5, 1
  %11 = tail call i32 (ptr, ptr, ...) @fprintf(ptr noundef %9, ptr noundef nonnull @.str.16, i64 noundef %10) #26
  tail call fastcc void @graphviz_exit() #27
  unreachable

agxbsizeof.exit.i.i:                              ; preds = %2
  %12 = getelementptr inbounds nuw i8, ptr %3, i64 8
  %13 = load i64, ptr %12, align 8, !tbaa !26
  %14 = getelementptr inbounds nuw i8, ptr %3, i64 16
  %15 = load i64, ptr %14, align 8, !tbaa !26
  %.not.i7.i = icmp ult i64 %13, %15
  br i1 %.not.i7.i, label %.thread.i, label %16

16:                                               ; preds = %agxbsizeof.exit.i.i
  call fastcc void @agxbmore(ptr noundef nonnull %3, i64 noundef 1)
  %.val.i15.pre.i.i = load i8, ptr %4, align 1, !tbaa !26
  %.not.i16.i.i = icmp eq i8 %.val.i15.pre.i.i, -1
  br i1 %.not.i16.i.i, label %..thread_crit_edge.i, label %17

..thread_crit_edge.i:                             ; preds = %16
  %.pre.i = load i64, ptr %12, align 8, !tbaa !26
  br label %.thread.i

17:                                               ; preds = %16
  %18 = zext i8 %.val.i15.pre.i.i to i64
  %19 = getelementptr inbounds nuw [31 x i8], ptr %3, i64 0, i64 %18
  store i8 0, ptr %19, align 1, !tbaa !26
  %.pre = load ptr, ptr %3, align 8, !tbaa !26
  br label %agxbdisown.exit

.thread.i:                                        ; preds = %..thread_crit_edge.i, %agxbsizeof.exit.i.i
  %20 = phi i64 [ %.pre.i, %..thread_crit_edge.i ], [ %13, %agxbsizeof.exit.i.i ]
  %21 = load ptr, ptr %3, align 8, !tbaa !26
  %22 = getelementptr inbounds nuw i8, ptr %21, i64 %20
  store i8 0, ptr %22, align 1, !tbaa !26
  br label %agxbdisown.exit

agxbdisown.exit:                                  ; preds = %17, %.thread.i, %agxblen.exit.i
  %.0.i = phi ptr [ %6, %agxblen.exit.i ], [ %21, %.thread.i ], [ %.pre, %17 ]
  call void @llvm.lifetime.end.p0(i64 32, ptr nonnull %3) #24
  ret ptr %.0.i
}